target datalayout = "e-m:e-p270:32:32-p271:32:32-p272:64:64-i64:64-i128:128-f80:128-n8:16:32:64-S128"
target triple = "x86_64-pc-linux-gnu"

%struct.prte_bp_graph_edge_t = type { %struct.pmix_object_t, %struct.pmix_list_item_t, %struct.pmix_list_item_t, i32, i32, i64, i32, ptr }
%struct.pmix_object_t = type { %union.pthread_mutex_t, ptr, i32, %struct.pmix_tma }
%union.pthread_mutex_t = type { %struct.__pthread_mutex_s }
%struct.__pthread_mutex_s = type { i32, i32, i32, i32, i32, i16, i16, %struct.__pthread_internal_list }
%struct.__pthread_internal_list = type { ptr, ptr }
%struct.pmix_tma = type { ptr, ptr, ptr, ptr, ptr, ptr, ptr, ptr }
%struct.pmix_list_item_t = type { %struct.pmix_object_t, ptr, ptr, i32 }
%struct.prte_bp_graph_t = type { i32, %struct.pmix_pointer_array_t, i32, i32, ptr, ptr }
%struct.pmix_pointer_array_t = type { %struct.pmix_object_t, i32, i32, i32, i32, i32, ptr, ptr }
%struct.prte_bp_graph_vertex_t = type { i32, ptr, %struct.pmix_list_t, %struct.pmix_list_t }
%struct.pmix_list_t = type { %struct.pmix_object_t, %struct.pmix_list_item_t, i64 }

@.str.2 = private unnamed_addr constant [18 x i8] c"bipartite_graph.c\00", align 1
@.str.3 = private unnamed_addr constant [58 x i8] c"[%s:%d:%s] user data copy requested but not yet supported\00", align 1
@__func__.prte_bp_graph_clone = private unnamed_addr constant [20 x i8] c"prte_bp_graph_clone\00", align 1

; Function Attrs: inlinehint nounwind uwtable
define internal ptr @pmix_pointer_array_get_item(ptr noundef %0, i32 noundef %1) #4 {
  %3 = alloca ptr, align 8
  %4 = alloca ptr, align 8
  %5 = alloca i32, align 4
  %6 = alloca ptr, align 8
  %7 = alloca i32, align 4
  store ptr %0, ptr %4, align 8, !tbaa !63
  store i32 %1, ptr %5, align 4, !tbaa !8
  call void @llvm.lifetime.start.p0(i64 8, ptr %6) #12
  %8 = load i32, ptr %5, align 4, !tbaa !8
  %9 = icmp sgt i32 0, %8
  br i1 %9, label %16, label %10

10:                                               ; preds = %2
  %11 = load ptr, ptr %4, align 8, !tbaa !63
  %12 = getelementptr inbounds nuw %struct.pmix_pointer_array_t, ptr %11, i32 0, i32 3
  %13 = load i32, ptr %12, align 8, !tbaa !65
  %14 = load i32, ptr %5, align 4, !tbaa !8
  %15 = icmp sle i32 %13, %14
  br label %16

16:                                               ; preds = %10, %2
  %17 = phi i1 [ true, %2 ], [ %15, %10 ]
  %18 = xor i1 %17, true
  %19 = xor i1 %18, true
  %20 = zext i1 %19 to i32
  %21 = sext i32 %20 to i64
  %22 = call i64 @llvm.expect.i64(i64 %21, i64 0)
  %23 = icmp ne i64 %22, 0
  br i1 %23, label %24, label %25

24:                                               ; preds = %16
  store ptr null, ptr %3, align 8
  store i32 1, ptr %7, align 4
  br label %34

25:                                               ; preds = %16
  %26 = load ptr, ptr %4, align 8, !tbaa !63
  %27 = getelementptr inbounds nuw %struct.pmix_pointer_array_t, ptr %26, i32 0, i32 7
  %28 = load ptr, ptr %27, align 8, !tbaa !66
  %29 = load i32, ptr %5, align 4, !tbaa !8
  %30 = sext i32 %29 to i64
  %31 = getelementptr inbounds ptr, ptr %28, i64 %30
  %32 = load ptr, ptr %31, align 8, !tbaa !19
  store ptr %32, ptr %6, align 8, !tbaa !19
  %33 = load ptr, ptr %6, align 8, !tbaa !19
  store ptr %33, ptr %3, align 8
  store i32 1, ptr %7, align 4
  br label %34

34:                                               ; preds = %25, %24
  call void @llvm.lifetime.end.p0(i64 8, ptr %6) #12
  %35 = load ptr, ptr %3, align 8
  ret ptr %35
}

; Function Attrs: nounwind uwtable
define i32 @prte_bp_graph_clone(ptr noundef %0, i1 noundef zeroext %1, ptr noundef %2) #0 {
  %4 = alloca i32, align 4
  %5 = alloca ptr, align 8
  %6 = alloca i8, align 1
  %7 = alloca ptr, align 8
  %8 = alloca i32, align 4
  %9 = alloca i32, align 4
  %10 = alloca i32, align 4
  %11 = alloca ptr, align 8
  %12 = alloca ptr, align 8
  %13 = alloca i32, align 4
  %14 = alloca ptr, align 8
  store ptr %0, ptr %5, align 8, !tbaa !22
  %15 = zext i1 %1 to i8
  store i8 %15, ptr %6, align 1, !tbaa !76
  store ptr %2, ptr %7, align 8, !tbaa !20
  call void @llvm.lifetime.start.p0(i64 4, ptr %8) #12
  call void @llvm.lifetime.start.p0(i64 4, ptr %9) #12
  call void @llvm.lifetime.start.p0(i64 4, ptr %10) #12
  call void @llvm.lifetime.start.p0(i64 8, ptr %11) #12
  call void @llvm.lifetime.start.p0(i64 8, ptr %12) #12
  %16 = load ptr, ptr %7, align 8, !tbaa !20
  %17 = icmp eq ptr null, %16
  br i1 %17, label %18, label %19

18:                                               ; preds = %3
  store i32 -5, ptr %4, align 4
  store i32 1, ptr %13, align 4
  br label %115

19:                                               ; preds = %3
  %20 = load ptr, ptr %7, align 8, !tbaa !20
  store ptr null, ptr %20, align 8, !tbaa !22
  %21 = load i8, ptr %6, align 1, !tbaa !76, !range !78, !noundef !79
  %22 = trunc i8 %21 to i1
  br i1 %22, label %23, label %24

23:                                               ; preds = %19
  call void (i32, ptr, ...) @pmix_output(i32 noundef 0, ptr noundef @.str.3, ptr noundef @.str.2, i32 noundef 260, ptr noundef @__func__.prte_bp_graph_clone)
  call void @abort() #15
  unreachable

24:                                               ; preds = %19
  store ptr null, ptr %11, align 8, !tbaa !22
  %25 = call i32 @prte_bp_graph_create(ptr noundef null, ptr noundef null, ptr noundef %11)
  store i32 %25, ptr %8, align 4, !tbaa !8
  %26 = load i32, ptr %8, align 4, !tbaa !8
  %27 = icmp ne i32 0, %26
  br i1 %27, label %28, label %30

28:                                               ; preds = %24
  %29 = load i32, ptr %8, align 4, !tbaa !8
  store i32 %29, ptr %4, align 4
  store i32 1, ptr %13, align 4
  br label %115

30:                                               ; preds = %24
  store i32 0, ptr %9, align 4, !tbaa !8
  br label %31

31:                                               ; preds = %44, %30
  %32 = load i32, ptr %9, align 4, !tbaa !8
  %33 = load ptr, ptr %5, align 8, !tbaa !22
  %34 = getelementptr inbounds nuw %struct.prte_bp_graph_t, ptr %33, i32 0, i32 0
  %35 = load i32, ptr %34, align 8, !tbaa !47
  %36 = icmp slt i32 %32, %35
  br i1 %36, label %37, label %47

37:                                               ; preds = %31
  %38 = load ptr, ptr %11, align 8, !tbaa !22
  %39 = call i32 @prte_bp_graph_add_vertex(ptr noundef %38, ptr noundef null, ptr noundef %10)
  store i32 %39, ptr %8, align 4, !tbaa !8
  %40 = load i32, ptr %8, align 4, !tbaa !8
  %41 = icmp ne i32 0, %40
  br i1 %41, label %42, label %43

42:                                               ; preds = %37
  br label %111

43:                                               ; preds = %37
  br label %44

44:                                               ; preds = %43
  %45 = load i32, ptr %9, align 4, !tbaa !8
  %46 = add nsw i32 %45, 1
  store i32 %46, ptr %9, align 4, !tbaa !8
  br label %31, !llvm.loop !80

47:                                               ; preds = %31
  store i32 0, ptr %9, align 4, !tbaa !8
  br label %48

48:                                               ; preds = %105, %47
  %49 = load i32, ptr %9, align 4, !tbaa !8
  %50 = load ptr, ptr %5, align 8, !tbaa !22
  %51 = getelementptr inbounds nuw %struct.prte_bp_graph_t, ptr %50, i32 0, i32 0
  %52 = load i32, ptr %51, align 8, !tbaa !47
  %53 = icmp slt i32 %49, %52
  br i1 %53, label %54, label %108

54:                                               ; preds = %48
  call void @llvm.lifetime.start.p0(i64 8, ptr %14) #12
  %55 = load ptr, ptr %5, align 8, !tbaa !22
  %56 = getelementptr inbounds nuw %struct.prte_bp_graph_t, ptr %55, i32 0, i32 1
  %57 = load i32, ptr %9, align 4, !tbaa !8
  %58 = call ptr @pmix_pointer_array_get_item(ptr noundef %56, i32 noundef %57)
  store ptr %58, ptr %14, align 8, !tbaa !48
  %59 = load ptr, ptr %14, align 8, !tbaa !48
  %60 = icmp eq ptr null, %59
  br i1 %60, label %61, label %62

61:                                               ; preds = %54
  store i32 -13, ptr %8, align 4, !tbaa !8
  store i32 5, ptr %13, align 4
  br label %102

62:                                               ; preds = %54
  %63 = load ptr, ptr %14, align 8, !tbaa !48
  %64 = getelementptr inbounds nuw %struct.prte_bp_graph_vertex_t, ptr %63, i32 0, i32 2
  %65 = getelementptr inbounds nuw %struct.pmix_list_t, ptr %64, i32 0, i32 1
  %66 = getelementptr inbounds nuw %struct.pmix_list_item_t, ptr %65, i32 0, i32 1
  %67 = load ptr, ptr %66, align 8, !tbaa !50
  %68 = getelementptr inbounds i8, ptr %67, i64 -120
  store ptr %68, ptr %12, align 8, !tbaa !3
  br label %69

69:                                               ; preds = %95, %62
  %70 = load ptr, ptr %12, align 8, !tbaa !3
  %71 = getelementptr inbounds nuw %struct.prte_bp_graph_edge_t, ptr %70, i32 0, i32 1
  %72 = load ptr, ptr %14, align 8, !tbaa !48
  %73 = getelementptr inbounds nuw %struct.prte_bp_graph_vertex_t, ptr %72, i32 0, i32 2
  %74 = getelementptr inbounds nuw %struct.pmix_list_t, ptr %73, i32 0, i32 1
  %75 = icmp ne ptr %71, %74
  br i1 %75, label %76, label %101

76:                                               ; preds = %69
  %77 = load ptr, ptr %11, align 8, !tbaa !22
  %78 = load ptr, ptr %12, align 8, !tbaa !3
  %79 = getelementptr inbounds nuw %struct.prte_bp_graph_edge_t, ptr %78, i32 0, i32 3
  %80 = load i32, ptr %79, align 8, !tbaa !81
  %81 = load ptr, ptr %12, align 8, !tbaa !3
  %82 = getelementptr inbounds nuw %struct.prte_bp_graph_edge_t, ptr %81, i32 0, i32 4
  %83 = load i32, ptr %82, align 4, !tbaa !82
  %84 = load ptr, ptr %12, align 8, !tbaa !3
  %85 = getelementptr inbounds nuw %struct.prte_bp_graph_edge_t, ptr %84, i32 0, i32 5
  %86 = load i64, ptr %85, align 8, !tbaa !83
  %87 = load ptr, ptr %12, align 8, !tbaa !3
  %88 = getelementptr inbounds nuw %struct.prte_bp_graph_edge_t, ptr %87, i32 0, i32 6
  %89 = load i32, ptr %88, align 8, !tbaa !84
  %90 = call i32 @prte_bp_graph_add_edge(ptr noundef %77, i32 noundef %80, i32 noundef %83, i64 noundef %86, i32 noundef %89, ptr noundef null)
  store i32 %90, ptr %8, align 4, !tbaa !8
  %91 = load i32, ptr %8, align 4, !tbaa !8
  %92 = icmp ne i32 0, %91
  br i1 %92, label %93, label %94

93:                                               ; preds = %76
  store i32 5, ptr %13, align 4
  br label %102

94:                                               ; preds = %76
  br label %95

95:                                               ; preds = %94
  %96 = load ptr, ptr %12, align 8, !tbaa !3
  %97 = getelementptr inbounds nuw %struct.prte_bp_graph_edge_t, ptr %96, i32 0, i32 1
  %98 = getelementptr inbounds nuw %struct.pmix_list_item_t, ptr %97, i32 0, i32 1
  %99 = load ptr, ptr %98, align 8, !tbaa !55
  %100 = getelementptr inbounds i8, ptr %99, i64 -120
  store ptr %100, ptr %12, align 8, !tbaa !3
  br label %69, !llvm.loop !85

101:                                              ; preds = %69
  store i32 0, ptr %13, align 4
  br label %102

102:                                              ; preds = %93, %61, %101
  call void @llvm.lifetime.end.p0(i64 8, ptr %14) #12
  %103 = load i32, ptr %13, align 4
  switch i32 %103, label %115 [
    i32 0, label %104
    i32 5, label %111
  ]

104:                                              ; preds = %102
  br label %105

105:                                              ; preds = %104
  %106 = load i32, ptr %9, align 4, !tbaa !8
  %107 = add nsw i32 %106, 1
  store i32 %107, ptr %9, align 4, !tbaa !8
  br label %48, !llvm.loop !86

108:                                              ; preds = %48
  %109 = load ptr, ptr %11, align 8, !tbaa !22
  %110 = load ptr, ptr %7, align 8, !tbaa !20
  store ptr %109, ptr %110, align 8, !tbaa !22
  store i32 0, ptr %4, align 4
  store i32 1, ptr %13, align 4
  br label %115

111:                                              ; preds = %102, %42
  %112 = load ptr, ptr %11, align 8, !tbaa !22
  %113 = call i32 @prte_bp_graph_free(ptr noundef %112)
  %114 = load i32, ptr %8, align 4, !tbaa !8
  store i32 %114, ptr %4, align 4
  store i32 1, ptr %13, align 4
  br label %115

115:                                              ; preds = %111, %108, %102, %28, %18
  call void @llvm.lifetime.end.p0(i64 8, ptr %12) #12
  call void @llvm.lifetime.end.p0(i64 8, ptr %11) #12
  call void @llvm.lifetime.end.p0(i64 4, ptr %10) #12
  call void @llvm.lifetime.end.p0(i64 4, ptr %9) #12
  call void @llvm.lifetime.end.p0(i64 4, ptr %8) #12
  %116 = load i32, ptr %4, align 4
  ret i32 %116
}