; Function Attrs: nounwind uwtable
define i32 @prte_bp_graph_clone(ptr noundef readonly captures(none) %0, i1 noundef zeroext %1, ptr noundef writeonly captures(address_is_null) %2) local_unnamed_addr #0 {
  %4 = alloca i32, align 4
  %5 = alloca ptr, align 8
  call void @llvm.lifetime.start.p0(i64 4, ptr nonnull %4) #14
  call void @llvm.lifetime.start.p0(i64 8, ptr nonnull %5) #14
  %6 = icmp eq ptr %2, null
  br i1 %6, label %51, label %7

7:                                                ; preds = %3
  store ptr null, ptr %2, align 8, !tbaa !23
  br i1 %1, label %8, label %9

8:                                                ; preds = %7
  tail call void (i32, ptr, ...) @pmix_output(i32 noundef 0, ptr noundef nonnull @.str.3, ptr noundef nonnull @.str.2, i32 noundef 260, ptr noundef nonnull @__func__.prte_bp_graph_clone) #14
  tail call void @abort() #18
  unreachable

9:                                                ; preds = %7
  store ptr null, ptr %5, align 8, !tbaa !23
  %10 = call i32 @prte_bp_graph_create(ptr noundef null, ptr noundef null, ptr noundef nonnull %5)
  %.not = icmp eq i32 %10, 0
  br i1 %.not, label %.preheader48, label %51

.preheader48:                                     ; preds = %9
  %11 = load i32, ptr %0, align 8, !tbaa !32
  %12 = icmp sgt i32 %11, 0
  br i1 %12, label %.lr.ph, label %._crit_edge58

13:                                               ; preds = %.lr.ph
  %14 = add nuw nsw i32 %.02951, 1
  %15 = load i32, ptr %0, align 8, !tbaa !32
  %16 = icmp slt i32 %14, %15
  br i1 %16, label %.lr.ph, label %.preheader, !llvm.loop !53

.preheader:                                       ; preds = %13
  %17 = icmp sgt i32 %15, 0
  br i1 %17, label %.lr.ph57, label %._crit_edge58

.lr.ph57:                                         ; preds = %.preheader
  %18 = getelementptr inbounds nuw i8, ptr %0, i64 136
  %19 = getelementptr inbounds nuw i8, ptr %0, i64 160
  br label %22

.lr.ph:                                           ; preds = %.preheader48, %13
  %.02951 = phi i32 [ %14, %13 ], [ 0, %.preheader48 ]
  %20 = load ptr, ptr %5, align 8, !tbaa !23
  %21 = call i32 @prte_bp_graph_add_vertex(ptr noundef %20, ptr noundef null, ptr noundef nonnull %4)
  %.not43 = icmp eq i32 %21, 0
  br i1 %.not43, label %13, label %.thread

22:                                               ; preds = %.lr.ph57, %._crit_edge
  %23 = phi i32 [ %15, %.lr.ph57 ], [ %45, %._crit_edge ]
  %indvars.iv = phi i64 [ 0, %.lr.ph57 ], [ %indvars.iv.next, %._crit_edge ]
  %24 = load i32, ptr %18, align 8, !tbaa !33
  %25 = sext i32 %24 to i64
  %.not.i = icmp slt i64 %indvars.iv, %25
  br i1 %.not.i, label %pmix_pointer_array_get_item.exit, label %.thread, !prof !34

pmix_pointer_array_get_item.exit:                 ; preds = %22
  %26 = load ptr, ptr %19, align 8, !tbaa !35
  %27 = getelementptr inbounds nuw ptr, ptr %26, i64 %indvars.iv
  %28 = load ptr, ptr %27, align 8, !tbaa !18
  %29 = icmp eq ptr %28, null
  br i1 %29, label %.thread, label %30

30:                                               ; preds = %pmix_pointer_array_get_item.exit
  %31 = getelementptr inbounds nuw i8, ptr %28, i64 136
  %32 = getelementptr inbounds nuw i8, ptr %28, i64 256
  %.pn52 = load ptr, ptr %32, align 8, !tbaa !41
  %.not4153 = icmp eq ptr %.pn52, %31
  br i1 %.not4153, label %._crit_edge, label %.lr.ph55

33:                                               ; preds = %.lr.ph55
  %34 = getelementptr inbounds nuw i8, ptr %.pn54, i64 120
  %.pn = load ptr, ptr %34, align 8, !tbaa !41
  %.not41 = icmp eq ptr %.pn, %31
  br i1 %.not41, label %._crit_edge.loopexit, label %.lr.ph55, !llvm.loop !54

.lr.ph55:                                         ; preds = %30, %33
  %.pn54 = phi ptr [ %.pn, %33 ], [ %.pn52, %30 ]
  %35 = load ptr, ptr %5, align 8, !tbaa !23
  %36 = getelementptr inbounds nuw i8, ptr %.pn54, i64 288
  %37 = load i32, ptr %36, align 8, !tbaa !55
  %38 = getelementptr inbounds nuw i8, ptr %.pn54, i64 292
  %39 = load i32, ptr %38, align 4, !tbaa !56
  %40 = getelementptr inbounds nuw i8, ptr %.pn54, i64 296
  %41 = load i64, ptr %40, align 8, !tbaa !57
  %42 = getelementptr inbounds nuw i8, ptr %.pn54, i64 304
  %43 = load i32, ptr %42, align 8, !tbaa !58
  %44 = call i32 @prte_bp_graph_add_edge(ptr noundef %35, i32 noundef %37, i32 noundef %39, i64 noundef %41, i32 noundef %43, ptr noundef null)
  %.not42 = icmp eq i32 %44, 0
  br i1 %.not42, label %33, label %.thread

._crit_edge.loopexit:                             ; preds = %33
  %.pre = load i32, ptr %0, align 8, !tbaa !32
  br label %._crit_edge

._crit_edge:                                      ; preds = %._crit_edge.loopexit, %30
  %45 = phi i32 [ %.pre, %._crit_edge.loopexit ], [ %23, %30 ]
  %indvars.iv.next = add nuw nsw i64 %indvars.iv, 1
  %46 = sext i32 %45 to i64
  %47 = icmp slt i64 %indvars.iv.next, %46
  br i1 %47, label %22, label %._crit_edge58, !llvm.loop !59

._crit_edge58:                                    ; preds = %._crit_edge, %.preheader48, %.preheader
  %48 = load ptr, ptr %5, align 8, !tbaa !23
  store ptr %48, ptr %2, align 8, !tbaa !23
  br label %51

.thread:                                          ; preds = %.lr.ph, %22, %pmix_pointer_array_get_item.exit, %.lr.ph55
  %.131 = phi i32 [ %44, %.lr.ph55 ], [ -13, %pmix_pointer_array_get_item.exit ], [ -13, %22 ], [ %21, %.lr.ph ]
  %49 = load ptr, ptr %5, align 8, !tbaa !23
  %50 = call i32 @prte_bp_graph_free(ptr noundef %49)
  br label %51

51:                                               ; preds = %9, %3, %.thread, %._crit_edge58
  %.0 = phi i32 [ %.131, %.thread ], [ 0, %._crit_edge58 ], [ -5, %3 ], [ %10, %9 ]
  call void @llvm.lifetime.end.p0(i64 8, ptr nonnull %5) #14
  call void @llvm.lifetime.end.p0(i64 4, ptr nonnull %4) #14
  ret i32 %.0
}